target datalayout = "e-m:e-p270:32:32-p271:32:32-p272:64:64-i64:64-i128:128-f80:128-n8:16:32:64-S128"
target triple = "x86_64-pc-linux-gnu"

%struct.expert_field = type { i32, i32 }

@hf_nan_map_id = internal global i32 0, align 4
@hf_nan_time_bitmap = internal global i32 0, align 4
@hf_nan_time_bitmap_len = internal global i32 0, align 4
@hf_nan_time_bitmap_ctrl = internal global i32 0, align 4
@ett_time_bitmap_ctrl = internal global i32 0, align 4
@ett_public_availability_sch_entries = internal global i32 0, align 4
@ei_nan_elem_len_invalid = internal global %struct.expert_field zeroinitializer, align 4
@.str.723 = private unnamed_addr constant [40 x i8] c"Public Availability Schedule Entry List\00", align 1
@time_bitmap_ctr_fields = internal constant [4 x ptr] [ptr @hf_nan_time_bitmap_ctrl_bit_duration, ptr @hf_nan_time_bitmap_ctrl_period, ptr @hf_nan_time_bitmap_ctrl_start_offset, ptr null], align 16

; Function Attrs: null_pointer_is_valid sspstrong uwtable
define internal void @dissect_attr_public_availability(ptr noundef %0, ptr noundef %1, i32 noundef %2, i16 noundef zeroext %3, ptr noundef %4) #0 {
  %6 = alloca ptr, align 8
  %7 = alloca ptr, align 8
  %8 = alloca i32, align 4
  %9 = alloca i16, align 2
  %10 = alloca ptr, align 8
  %11 = alloca i32, align 4
  %12 = alloca i32, align 4
  %13 = alloca ptr, align 8
  %14 = alloca i32, align 4
  store ptr %0, ptr %6, align 8
  store ptr %1, ptr %7, align 8
  store i32 %2, ptr %8, align 4
  store i16 %3, ptr %9, align 2
  store ptr %4, ptr %10, align 8
  %15 = load i16, ptr %9, align 2
  %16 = zext i16 %15 to i32
  %17 = icmp slt i32 %16, 4
  br i1 %17, label %18, label %22

18:                                               ; preds = %5
  %19 = load ptr, ptr %10, align 8
  %20 = load ptr, ptr %6, align 8
  %21 = call ptr @expert_add_info(ptr noundef %19, ptr noundef %20, ptr noundef @ei_nan_elem_len_invalid)
  br label %78

22:                                               ; preds = %5
  call void @llvm.lifetime.start.p0(i64 4, ptr %11) #5
  %23 = load i32, ptr %8, align 4
  %24 = add i32 %23, 3
  store i32 %24, ptr %11, align 4
  call void @llvm.lifetime.start.p0(i64 4, ptr %12) #5
  store i32 0, ptr %12, align 4
  call void @llvm.lifetime.start.p0(i64 8, ptr %13) #5
  %25 = load ptr, ptr %6, align 8
  %26 = load ptr, ptr %7, align 8
  %27 = load i32, ptr %11, align 4
  %28 = load i16, ptr %9, align 2
  %29 = zext i16 %28 to i32
  %30 = load i32, ptr @ett_public_availability_sch_entries, align 4
  %31 = call ptr @proto_tree_add_subtree(ptr noundef %25, ptr noundef %26, i32 noundef %27, i32 noundef %29, i32 noundef %30, ptr noundef null, ptr noundef @.str.723)
  store ptr %31, ptr %13, align 8
  br label %32

32:                                               ; preds = %37, %22
  %33 = load i32, ptr %12, align 4
  %34 = load i16, ptr %9, align 2
  %35 = zext i16 %34 to i32
  %36 = icmp ult i32 %33, %35
  br i1 %36, label %37, label %77

37:                                               ; preds = %32
  %38 = load ptr, ptr %13, align 8
  %39 = load i32, ptr @hf_nan_map_id, align 4
  %40 = load ptr, ptr %7, align 8
  %41 = load i32, ptr %11, align 4
  %42 = call ptr @proto_tree_add_item(ptr noundef %38, i32 noundef %39, ptr noundef %40, i32 noundef %41, i32 noundef 1, i32 noundef 0)
  %43 = load i32, ptr %11, align 4
  %44 = add i32 %43, 1
  store i32 %44, ptr %11, align 4
  %45 = load ptr, ptr %13, align 8
  %46 = load ptr, ptr %7, align 8
  %47 = load i32, ptr %11, align 4
  %48 = load i32, ptr @hf_nan_time_bitmap_ctrl, align 4
  %49 = load i32, ptr @ett_time_bitmap_ctrl, align 4
  %50 = call ptr @proto_tree_add_bitmask(ptr noundef %45, ptr noundef %46, i32 noundef %47, i32 noundef %48, i32 noundef %49, ptr noundef @time_bitmap_ctr_fields, i32 noundef -2147483648)
  %51 = load i32, ptr %11, align 4
  %52 = add i32 %51, 2
  store i32 %52, ptr %11, align 4
  call void @llvm.lifetime.start.p0(i64 4, ptr %14) #5
  %53 = load ptr, ptr %7, align 8
  %54 = load i32, ptr %11, align 4
  %55 = call zeroext i8 @tvb_get_uint8(ptr noundef %53, i32 noundef %54)
  %56 = zext i8 %55 to i32
  store i32 %56, ptr %14, align 4
  %57 = load ptr, ptr %13, align 8
  %58 = load i32, ptr @hf_nan_time_bitmap_len, align 4
  %59 = load ptr, ptr %7, align 8
  %60 = load i32, ptr %11, align 4
  %61 = call ptr @proto_tree_add_item(ptr noundef %57, i32 noundef %58, ptr noundef %59, i32 noundef %60, i32 noundef 1, i32 noundef 0)
  %62 = load i32, ptr %11, align 4
  %63 = add i32 %62, 1
  store i32 %63, ptr %11, align 4
  %64 = load ptr, ptr %13, align 8
  %65 = load i32, ptr @hf_nan_time_bitmap, align 4
  %66 = load ptr, ptr %7, align 8
  %67 = load i32, ptr %11, align 4
  %68 = load i32, ptr %14, align 4
  %69 = call ptr @proto_tree_add_item(ptr noundef %64, i32 noundef %65, ptr noundef %66, i32 noundef %67, i32 noundef %68, i32 noundef 0)
  %70 = load i32, ptr %14, align 4
  %71 = load i32, ptr %11, align 4
  %72 = add i32 %71, %70
  store i32 %72, ptr %11, align 4
  %73 = load i32, ptr %14, align 4
  %74 = add i32 %73, 4
  %75 = load i32, ptr %12, align 4
  %76 = add i32 %75, %74
  store i32 %76, ptr %12, align 4
  call void @llvm.lifetime.end.p0(i64 4, ptr %14) #5
  br label %32, !llvm.loop !13

77:                                               ; preds = %32
  call void @llvm.lifetime.end.p0(i64 8, ptr %13) #5
  call void @llvm.lifetime.end.p0(i64 4, ptr %12) #5
  call void @llvm.lifetime.end.p0(i64 4, ptr %11) #5
  br label %78

78:                                               ; preds = %77, %18
  ret void
}