; Function Attrs: null_pointer_is_valid sspstrong uwtable
define internal fastcc void @dissect_attr_public_availability(ptr noundef %0, ptr noundef %1, i32 noundef %2, i16 noundef zeroext %3, ptr noundef %4) unnamed_addr #0 {
  %6 = zext i16 %3 to i32
  %7 = icmp ult i16 %3, 4
  br i1 %7, label %8, label %10

8:                                                ; preds = %5
  %9 = tail call ptr @expert_add_info(ptr noundef %4, ptr noundef %0, ptr noundef nonnull @ei_nan_elem_len_invalid)
  br label %.loopexit

10:                                               ; preds = %5
  %11 = add i32 %2, 3
  %12 = load i32, ptr @ett_public_availability_sch_entries, align 4
  %13 = tail call ptr @proto_tree_add_subtree(ptr noundef %0, ptr noundef %1, i32 noundef %11, i32 noundef %6, i32 noundef %12, ptr noundef null, ptr noundef nonnull @.str.723)
  br label %14

14:                                               ; preds = %10, %14
  %.034 = phi i32 [ %11, %10 ], [ %29, %14 ]
  %.03133 = phi i32 [ 0, %10 ], [ %31, %14 ]
  %15 = load i32, ptr @hf_nan_map_id, align 4
  %16 = tail call ptr @proto_tree_add_item(ptr noundef %13, i32 noundef %15, ptr noundef %1, i32 noundef %.034, i32 noundef 1, i32 noundef 0)
  %17 = add i32 %.034, 1
  %18 = load i32, ptr @hf_nan_time_bitmap_ctrl, align 4
  %19 = load i32, ptr @ett_time_bitmap_ctrl, align 4
  %20 = tail call ptr @proto_tree_add_bitmask(ptr noundef %13, ptr noundef %1, i32 noundef %17, i32 noundef %18, i32 noundef %19, ptr noundef nonnull @time_bitmap_ctr_fields, i32 noundef -2147483648)
  %21 = add i32 %.034, 3
  %22 = tail call zeroext i8 @tvb_get_uint8(ptr noundef %1, i32 noundef %21)
  %23 = zext i8 %22 to i32
  %24 = load i32, ptr @hf_nan_time_bitmap_len, align 4
  %25 = tail call ptr @proto_tree_add_item(ptr noundef %13, i32 noundef %24, ptr noundef %1, i32 noundef %21, i32 noundef 1, i32 noundef 0)
  %26 = add i32 %.034, 4
  %27 = load i32, ptr @hf_nan_time_bitmap, align 4
  %28 = tail call ptr @proto_tree_add_item(ptr noundef %13, i32 noundef %27, ptr noundef %1, i32 noundef %26, i32 noundef %23, i32 noundef 0)
  %29 = add i32 %26, %23
  %30 = add nuw nsw i32 %.03133, 4
  %31 = add nuw nsw i32 %30, %23
  %32 = icmp samesign ult i32 %31, %6
  br i1 %32, label %14, label %.loopexit, !llvm.loop !13

.loopexit:                                        ; preds = %14, %8
  ret void
}